; Function Attrs: nounwind sspstrong uwtable
define internal range(i64 1, 0) i64 @ast_location_last_column(ptr readnone captures(none) %0, i64 noundef %1) #0 {
  %3 = tail call ptr @rb_check_typeddata(i64 noundef %1, ptr noundef nonnull @rb_location_type) #11
  %4 = getelementptr inbounds nuw i8, ptr %3, i64 12
  %5 = load i32, ptr %4, align 4, !tbaa !111
  %6 = sext i32 %5 to i64
  %7 = shl nsw i64 %6, 1
  %8 = or disjoint i64 %7, 1
  ret i64 %8
}